target datalayout = "e-m:e-p270:32:32-p271:32:32-p272:64:64-i64:64-i128:128-f80:128-n8:16:32:64-S128"
target triple = "x86_64-pc-linux-gnu"

@_ZN5arrow8bit_utilL17kPrecedingBitmaskE = internal constant [8 x i8] c"\00\01\03\07\0F\1F?\7F", align 1

; Function Attrs: mustprogress nounwind uwtable
define linkonce_odr noundef zeroext i8 @_ZN5arrow8bit_util20PrecedingWordBitmaskIhEET_j(i32 noundef %0) #0 comdat {
  %2 = alloca i32, align 4
  store i32 %0, ptr %2, align 4, !tbaa !15
  %3 = load i32, ptr %2, align 4, !tbaa !15
  %4 = zext i32 %3 to i64
  %5 = icmp ult i64 %4, 8
  %6 = zext i1 %5 to i8
  %7 = zext i8 %6 to i32
  %8 = load i32, ptr %2, align 4, !tbaa !15
  %9 = zext i32 %8 to i64
  %10 = and i64 %9, 7
  %11 = trunc i64 %10 to i32
  %12 = shl i32 %7, %11
  %13 = trunc i32 %12 to i8
  %14 = zext i8 %13 to i32
  %15 = sub nsw i32 %14, 1
  %16 = trunc i32 %15 to i8
  ret i8 %16
}

; Function Attrs: mustprogress nounwind uwtable
define linkonce_odr noundef i64 @_ZN5arrow8bit_util7CeilDivEll(i64 noundef %0, i64 noundef %1) #0 comdat {
  %3 = alloca i64, align 8
  %4 = alloca i64, align 8
  store i64 %0, ptr %3, align 8, !tbaa !8
  store i64 %1, ptr %4, align 8, !tbaa !8
  %5 = load i64, ptr %3, align 8, !tbaa !8
  %6 = icmp eq i64 %5, 0
  br i1 %6, label %7, label %8

7:                                                ; preds = %2
  br label %14

8:                                                ; preds = %2
  %9 = load i64, ptr %3, align 8, !tbaa !8
  %10 = sub nsw i64 %9, 1
  %11 = load i64, ptr %4, align 8, !tbaa !8
  %12 = sdiv i64 %10, %11
  %13 = add nsw i64 1, %12
  br label %14

14:                                               ; preds = %8, %7
  %15 = phi i64 [ 0, %7 ], [ %13, %8 ]
  ret i64 %15
}

; Function Attrs: mustprogress nounwind uwtable
define linkonce_odr noundef i64 @_ZN5arrow8bit_util9RoundDownEll(i64 noundef %0, i64 noundef %1) #0 comdat {
  %3 = alloca i64, align 8
  %4 = alloca i64, align 8
  store i64 %0, ptr %3, align 8, !tbaa !8
  store i64 %1, ptr %4, align 8, !tbaa !8
  %5 = load i64, ptr %3, align 8, !tbaa !8
  %6 = load i64, ptr %4, align 8, !tbaa !8
  %7 = sdiv i64 %5, %6
  %8 = load i64, ptr %4, align 8, !tbaa !8
  %9 = mul nsw i64 %7, %8
  ret i64 %9
}

; Function Attrs: mustprogress uwtable
define linkonce_odr noundef zeroext i8 @_ZN5arrow8bit_util10SpliceWordIhEET_iS2_S2_(i32 noundef %0, i8 noundef zeroext %1, i8 noundef zeroext %2) #3 comdat {
  %4 = alloca i32, align 4
  %5 = alloca i8, align 1
  %6 = alloca i8, align 1
  store i32 %0, ptr %4, align 4, !tbaa !15
  store i8 %1, ptr %5, align 1, !tbaa !14
  store i8 %2, ptr %6, align 1, !tbaa !14
  %7 = load i8, ptr %6, align 1, !tbaa !14
  %8 = zext i8 %7 to i32
  %9 = load i32, ptr %4, align 4, !tbaa !15
  %10 = call noundef zeroext i8 @_ZN5arrow8bit_util20PrecedingWordBitmaskIhEET_j(i32 noundef %9)
  %11 = zext i8 %10 to i32
  %12 = xor i32 %11, -1
  %13 = and i32 %8, %12
  %14 = load i8, ptr %5, align 1, !tbaa !14
  %15 = zext i8 %14 to i32
  %16 = load i32, ptr %4, align 4, !tbaa !15
  %17 = call noundef zeroext i8 @_ZN5arrow8bit_util20PrecedingWordBitmaskIhEET_j(i32 noundef %16)
  %18 = zext i8 %17 to i32
  %19 = and i32 %15, %18
  %20 = or i32 %13, %19
  %21 = trunc i32 %20 to i8
  ret i8 %21
}

; Function Attrs: mustprogress uwtable
define linkonce_odr noundef i64 @_ZN5arrow8bit_util7RoundUpEll(i64 noundef %0, i64 noundef %1) #3 comdat {
  %3 = alloca i64, align 8
  %4 = alloca i64, align 8
  store i64 %0, ptr %3, align 8, !tbaa !8
  store i64 %1, ptr %4, align 8, !tbaa !8
  %5 = load i64, ptr %3, align 8, !tbaa !8
  %6 = load i64, ptr %4, align 8, !tbaa !8
  %7 = call noundef i64 @_ZN5arrow8bit_util7CeilDivEll(i64 noundef %5, i64 noundef %6)
  %8 = load i64, ptr %4, align 8, !tbaa !8
  %9 = mul nsw i64 %7, %8
  ret i64 %9
}

; Function Attrs: mustprogress uwtable
define linkonce_odr void @_ZN5arrow8bit_util13SetBitmapImplILb1EEEvPhll(ptr noundef %0, i64 noundef %1, i64 noundef %2) #3 comdat {
  %4 = alloca ptr, align 8
  %5 = alloca i64, align 8
  %6 = alloca i64, align 8
  %7 = alloca i8, align 1
  %8 = alloca i32, align 4
  %9 = alloca i8, align 1
  %10 = alloca i32, align 4
  store ptr %0, ptr %4, align 8, !tbaa !3
  store i64 %1, ptr %5, align 8, !tbaa !8
  store i64 %2, ptr %6, align 8, !tbaa !8
  %11 = load i64, ptr %6, align 8, !tbaa !8
  %12 = icmp eq i64 %11, 0
  %13 = xor i1 %12, true
  %14 = xor i1 %13, true
  %15 = zext i1 %14 to i64
  %16 = call i64 @llvm.expect.i64(i64 %15, i64 0)
  %17 = icmp ne i64 %16, 0
  br i1 %17, label %18, label %19

18:                                               ; preds = %3
  br label %140

19:                                               ; preds = %3
  call void @llvm.lifetime.start.p0(i64 1, ptr %7) #5
  store i8 -1, ptr %7, align 1, !tbaa !14
  call void @llvm.lifetime.start.p0(i64 4, ptr %8) #5
  %20 = load i64, ptr %5, align 8, !tbaa !8
  %21 = call noundef i64 @_ZN5arrow8bit_util7RoundUpEll(i64 noundef %20, i64 noundef 8)
  %22 = load i64, ptr %5, align 8, !tbaa !8
  %23 = sub nsw i64 %21, %22
  %24 = trunc i64 %23 to i32
  store i32 %24, ptr %8, align 4, !tbaa !15
  br label %25

25:                                               ; preds = %26, %19
  br i1 false, label %26, label %27

26:                                               ; preds = %25
  br label %25, !llvm.loop !17

27:                                               ; preds = %25
  br label %28

28:                                               ; preds = %29, %27
  br i1 false, label %29, label %30

29:                                               ; preds = %28
  br label %28, !llvm.loop !19

30:                                               ; preds = %28
  br label %31

31:                                               ; preds = %32, %30
  br i1 false, label %32, label %33

32:                                               ; preds = %31
  br label %31, !llvm.loop !20

33:                                               ; preds = %31
  %34 = load i64, ptr %6, align 8, !tbaa !8
  %35 = load i32, ptr %8, align 4, !tbaa !15
  %36 = sext i32 %35 to i64
  %37 = icmp slt i64 %34, %36
  br i1 %37, label %38, label %69

38:                                               ; preds = %33
  call void @llvm.lifetime.start.p0(i64 1, ptr %9) #5
  %39 = load i32, ptr %8, align 4, !tbaa !15
  %40 = sub nsw i32 8, %39
  %41 = sext i32 %40 to i64
  %42 = getelementptr inbounds [8 x i8], ptr @_ZN5arrow8bit_utilL17kPrecedingBitmaskE, i64 0, i64 %41
  %43 = load i8, ptr %42, align 1, !tbaa !14
  %44 = zext i8 %43 to i32
  %45 = load i32, ptr %8, align 4, !tbaa !15
  %46 = sub nsw i32 8, %45
  %47 = sext i32 %46 to i64
  %48 = load i64, ptr %6, align 8, !tbaa !8
  %49 = add nsw i64 %47, %48
  %50 = getelementptr inbounds [8 x i8], ptr @_ZN5arrow8bit_utilL17kPrecedingBitmaskE, i64 0, i64 %49
  %51 = load i8, ptr %50, align 1, !tbaa !14
  %52 = zext i8 %51 to i32
  %53 = xor i32 %44, %52
  %54 = trunc i32 %53 to i8
  store i8 %54, ptr %9, align 1, !tbaa !14
  %55 = load ptr, ptr %4, align 8, !tbaa !3
  %56 = load i64, ptr %5, align 8, !tbaa !8
  %57 = sdiv i64 %56, 8
  %58 = getelementptr inbounds i8, ptr %55, i64 %57
  %59 = load i8, ptr %58, align 1, !tbaa !14
  %60 = zext i8 %59 to i32
  %61 = load i8, ptr %9, align 1, !tbaa !14
  %62 = zext i8 %61 to i32
  %63 = or i32 %60, %62
  %64 = trunc i32 %63 to i8
  %65 = load ptr, ptr %4, align 8, !tbaa !3
  %66 = load i64, ptr %5, align 8, !tbaa !8
  %67 = sdiv i64 %66, 8
  %68 = getelementptr inbounds i8, ptr %65, i64 %67
  store i8 %64, ptr %68, align 1, !tbaa !14
  store i32 1, ptr %10, align 4
  call void @llvm.lifetime.end.p0(i64 1, ptr %9) #5
  br label %138

69:                                               ; preds = %33
  %70 = load i32, ptr %8, align 4, !tbaa !15
  %71 = sub nsw i32 8, %70
  %72 = load ptr, ptr %4, align 8, !tbaa !3
  %73 = load i64, ptr %5, align 8, !tbaa !8
  %74 = sdiv i64 %73, 8
  %75 = getelementptr inbounds i8, ptr %72, i64 %74
  %76 = load i8, ptr %75, align 1, !tbaa !14
  %77 = call noundef zeroext i8 @_ZN5arrow8bit_util10SpliceWordIhEET_iS2_S2_(i32 noundef %71, i8 noundef zeroext %76, i8 noundef zeroext -1)
  %78 = load ptr, ptr %4, align 8, !tbaa !3
  %79 = load i64, ptr %5, align 8, !tbaa !8
  %80 = sdiv i64 %79, 8
  %81 = getelementptr inbounds i8, ptr %78, i64 %80
  store i8 %77, ptr %81, align 1, !tbaa !14
  %82 = load i32, ptr %8, align 4, !tbaa !15
  %83 = sext i32 %82 to i64
  %84 = load i64, ptr %5, align 8, !tbaa !8
  %85 = add nsw i64 %84, %83
  store i64 %85, ptr %5, align 8, !tbaa !8
  %86 = load i32, ptr %8, align 4, !tbaa !15
  %87 = sext i32 %86 to i64
  %88 = load i64, ptr %6, align 8, !tbaa !8
  %89 = sub nsw i64 %88, %87
  store i64 %89, ptr %6, align 8, !tbaa !8
  br label %90

90:                                               ; preds = %91, %69
  br i1 false, label %91, label %92

91:                                               ; preds = %90
  br label %90, !llvm.loop !21

92:                                               ; preds = %90
  br label %93

93:                                               ; preds = %94, %92
  br i1 false, label %94, label %95

94:                                               ; preds = %93
  br label %93, !llvm.loop !22

95:                                               ; preds = %93
  br label %96

96:                                               ; preds = %97, %95
  br i1 false, label %97, label %98

97:                                               ; preds = %96
  br label %96, !llvm.loop !23

98:                                               ; preds = %96
  %99 = load ptr, ptr %4, align 8, !tbaa !3
  %100 = load i64, ptr %5, align 8, !tbaa !8
  %101 = sdiv i64 %100, 8
  %102 = getelementptr inbounds i8, ptr %99, i64 %101
  %103 = load i64, ptr %6, align 8, !tbaa !8
  %104 = sdiv i64 %103, 8
  call void @llvm.memset.p0.i64(ptr align 1 %102, i8 -1, i64 %104, i1 false)
  %105 = load i64, ptr %6, align 8, !tbaa !8
  %106 = call noundef i64 @_ZN5arrow8bit_util9RoundDownEll(i64 noundef %105, i64 noundef 8)
  %107 = load i64, ptr %5, align 8, !tbaa !8
  %108 = add nsw i64 %107, %106
  store i64 %108, ptr %5, align 8, !tbaa !8
  %109 = load i64, ptr %6, align 8, !tbaa !8
  %110 = call noundef i64 @_ZN5arrow8bit_util9RoundDownEll(i64 noundef %109, i64 noundef 8)
  %111 = load i64, ptr %6, align 8, !tbaa !8
  %112 = sub nsw i64 %111, %110
  store i64 %112, ptr %6, align 8, !tbaa !8
  br label %113

113:                                              ; preds = %114, %98
  br i1 false, label %114, label %115

114:                                              ; preds = %113
  br label %113, !llvm.loop !24

115:                                              ; preds = %113
  br label %116

116:                                              ; preds = %117, %115
  br i1 false, label %117, label %118

117:                                              ; preds = %116
  br label %116, !llvm.loop !25

118:                                              ; preds = %116
  br label %119

119:                                              ; preds = %120, %118
  br i1 false, label %120, label %121

120:                                              ; preds = %119
  br label %119, !llvm.loop !26

121:                                              ; preds = %119
  %122 = load i64, ptr %6, align 8, !tbaa !8
  %123 = icmp sgt i64 %122, 0
  br i1 %123, label %124, label %137

124:                                              ; preds = %121
  %125 = load i64, ptr %6, align 8, !tbaa !8
  %126 = trunc i64 %125 to i32
  %127 = load ptr, ptr %4, align 8, !tbaa !3
  %128 = load i64, ptr %5, align 8, !tbaa !8
  %129 = sdiv i64 %128, 8
  %130 = getelementptr inbounds i8, ptr %127, i64 %129
  %131 = load i8, ptr %130, align 1, !tbaa !14
  %132 = call noundef zeroext i8 @_ZN5arrow8bit_util10SpliceWordIhEET_iS2_S2_(i32 noundef %126, i8 noundef zeroext -1, i8 noundef zeroext %131)
  %133 = load ptr, ptr %4, align 8, !tbaa !3
  %134 = load i64, ptr %5, align 8, !tbaa !8
  %135 = sdiv i64 %134, 8
  %136 = getelementptr inbounds i8, ptr %133, i64 %135
  store i8 %132, ptr %136, align 1, !tbaa !14
  br label %137

137:                                              ; preds = %124, %121
  store i32 0, ptr %10, align 4
  br label %138

138:                                              ; preds = %137, %38
  call void @llvm.lifetime.end.p0(i64 4, ptr %8) #5
  call void @llvm.lifetime.end.p0(i64 1, ptr %7) #5
  %139 = load i32, ptr %10, align 4
  switch i32 %139, label %141 [
    i32 0, label %140
    i32 1, label %140
  ]

140:                                              ; preds = %18, %138, %138
  ret void

141:                                              ; preds = %138
  unreachable
}

; Function Attrs: mustprogress uwtable
define void @_ZN5arrow8bit_util9SetBitmapEPhll(ptr noundef %0, i64 noundef %1, i64 noundef %2) #3 {
  %4 = alloca ptr, align 8
  %5 = alloca i64, align 8
  %6 = alloca i64, align 8
  store ptr %0, ptr %4, align 8, !tbaa !3
  store i64 %1, ptr %5, align 8, !tbaa !8
  store i64 %2, ptr %6, align 8, !tbaa !8
  %7 = load ptr, ptr %4, align 8, !tbaa !3
  %8 = load i64, ptr %5, align 8, !tbaa !8
  %9 = load i64, ptr %6, align 8, !tbaa !8
  call void @_ZN5arrow8bit_util13SetBitmapImplILb1EEEvPhll(ptr noundef %7, i64 noundef %8, i64 noundef %9)
  ret void
}