; Function Attrs: mustprogress nofree norecurse nosync nounwind willreturn memory(argmem: readwrite) uwtable
define void @_ZN5arrow8bit_util9SetBitmapEPhll(ptr noundef captures(none) %0, i64 noundef %1, i64 noundef %2) local_unnamed_addr #0 {
  %4 = icmp eq i64 %2, 0
  br i1 %4, label %_ZN5arrow8bit_util13SetBitmapImplILb1EEEvPhll.exit, label %5, !prof !6

5:                                                ; preds = %3
  %6 = icmp eq i64 %1, 0
  br i1 %6, label %_ZN5arrow8bit_util7RoundUpEll.exit.i, label %7

7:                                                ; preds = %5
  %8 = add nsw i64 %1, -1
  %9 = sdiv i64 %8, 8
  %10 = shl nsw i64 %9, 3
  %11 = add i64 %10, 8
  br label %_ZN5arrow8bit_util7RoundUpEll.exit.i

_ZN5arrow8bit_util7RoundUpEll.exit.i:             ; preds = %7, %5
  %12 = phi i64 [ %11, %7 ], [ 0, %5 ]
  %13 = sub nsw i64 %12, %1
  %sext.i = shl i64 %13, 32
  %14 = ashr exact i64 %sext.i, 32
  %15 = icmp slt i64 %2, %14
  br i1 %15, label %16, label %28

16:                                               ; preds = %_ZN5arrow8bit_util7RoundUpEll.exit.i
  %sext36.i = sub i64 34359738368, %sext.i
  %17 = ashr exact i64 %sext36.i, 32
  %18 = getelementptr inbounds [8 x i8], ptr @_ZN5arrow8bit_utilL17kPrecedingBitmaskE, i64 0, i64 %17
  %19 = load i8, ptr %18, align 1, !tbaa !3
  %20 = add nsw i64 %17, %2
  %21 = getelementptr inbounds [8 x i8], ptr @_ZN5arrow8bit_utilL17kPrecedingBitmaskE, i64 0, i64 %20
  %22 = load i8, ptr %21, align 1, !tbaa !3
  %23 = xor i8 %22, %19
  %24 = sdiv i64 %1, 8
  %25 = getelementptr inbounds i8, ptr %0, i64 %24
  %26 = load i8, ptr %25, align 1, !tbaa !3
  %27 = or i8 %26, %23
  store i8 %27, ptr %25, align 1, !tbaa !3
  br label %_ZN5arrow8bit_util13SetBitmapImplILb1EEEvPhll.exit

28:                                               ; preds = %_ZN5arrow8bit_util7RoundUpEll.exit.i
  %29 = trunc i64 %13 to i32
  %30 = sub nsw i32 8, %29
  %31 = sdiv i64 %1, 8
  %32 = getelementptr inbounds i8, ptr %0, i64 %31
  %33 = load i8, ptr %32, align 1, !tbaa !3
  %34 = icmp ult i32 %30, 8
  %.neg.i = sext i1 %34 to i32
  %35 = and i32 %30, 7
  %.neg37.i = shl nsw i32 %.neg.i, %35
  %.neg38.i = trunc nsw i32 %.neg37.i to i8
  %36 = or i8 %33, %.neg38.i
  store i8 %36, ptr %32, align 1, !tbaa !3
  %37 = add nsw i64 %14, %1
  %38 = sub nsw i64 %2, %14
  %39 = sdiv i64 %37, 8
  %40 = getelementptr inbounds i8, ptr %0, i64 %39
  %41 = sdiv i64 %38, 8
  tail call void @llvm.memset.p0.i64(ptr align 1 %40, i8 -1, i64 %41, i1 false)
  %42 = srem i64 %38, 8
  %43 = icmp sgt i64 %42, 0
  br i1 %43, label %44, label %_ZN5arrow8bit_util13SetBitmapImplILb1EEEvPhll.exit

44:                                               ; preds = %28
  %45 = add i64 %2, %1
  %46 = sub i64 %45, %42
  %47 = trunc nsw i64 %42 to i32
  %48 = sdiv i64 %46, 8
  %49 = getelementptr inbounds i8, ptr %0, i64 %48
  %50 = load i8, ptr %49, align 1, !tbaa !3
  %51 = shl nuw nsw i32 1, %47
  %52 = trunc nuw i32 %51 to i8
  %53 = add i8 %52, -1
  %54 = or i8 %50, %53
  store i8 %54, ptr %49, align 1, !tbaa !3
  br label %_ZN5arrow8bit_util13SetBitmapImplILb1EEEvPhll.exit

_ZN5arrow8bit_util13SetBitmapImplILb1EEEvPhll.exit: ; preds = %3, %16, %28, %44
  ret void
}